target datalayout = "e-m:e-p270:32:32-p271:32:32-p272:64:64-i64:64-i128:128-f80:128-n8:16:32:64-S128"
target triple = "x86_64-pc-linux-gnu"

%struct.b2BodyId = type { i32, i16, i16 }
%struct.b2Vec2 = type { float, float }
%struct.b2BodyArray = type { ptr, i32, i32 }
%struct.b2World = type { %struct.b2ArenaAllocator, %struct.b2BroadPhase, %struct.b2ConstraintGraph, %struct.b2IdPool, %struct.b2BodyArray, %struct.b2IdPool, %struct.b2SolverSetArray, %struct.b2IdPool, %struct.b2JointArray, %struct.b2IdPool, %struct.b2ContactArray, %struct.b2IdPool, %struct.b2IslandArray, %struct.b2IdPool, %struct.b2IdPool, %struct.b2ShapeArray, %struct.b2ChainShapeArray, %struct.b2SensorArray, %struct.b2TaskContextArray, %struct.b2SensorTaskContextArray, %struct.b2BodyMoveEventArray, %struct.b2SensorBeginTouchEventArray, %struct.b2ContactBeginTouchEventArray, [2 x %struct.b2SensorEndTouchEventArray], [2 x %struct.b2ContactEndTouchEventArray], i32, %struct.b2ContactHitEventArray, %struct.b2BitSet, %struct.b2BitSet, %struct.b2BitSet, i64, i32, %struct.b2Vec2, float, float, float, float, float, float, float, float, ptr, ptr, i16, %struct.b2Profile, ptr, ptr, ptr, ptr, i32, ptr, ptr, ptr, ptr, ptr, float, i32, i32, i16, i8, i8, i8, i8, i8, i8 }
%struct.b2ArenaAllocator = type { ptr, i32, i32, i32, i32, %struct.b2ArenaEntryArray }
%struct.b2ArenaEntryArray = type { ptr, i32, i32 }
%struct.b2BroadPhase = type { [3 x %struct.b2DynamicTree], i32, %struct.b2HashSet, %struct.b2IntArray, ptr, ptr, i32, %struct.b2AtomicInt, %struct.b2HashSet }
%struct.b2DynamicTree = type { ptr, i32, i32, i32, i32, i32, ptr, ptr, ptr, ptr, i32 }
%struct.b2IntArray = type { ptr, i32, i32 }
%struct.b2AtomicInt = type { i32 }
%struct.b2HashSet = type { ptr, i32, i32 }
%struct.b2ConstraintGraph = type { [12 x %struct.b2GraphColor] }
%struct.b2GraphColor = type { %struct.b2BitSet, %struct.b2ContactSimArray, %struct.b2JointSimArray, %union.anon }
%struct.b2ContactSimArray = type { ptr, i32, i32 }
%struct.b2JointSimArray = type { ptr, i32, i32 }
%union.anon = type { ptr }
%struct.b2SolverSetArray = type { ptr, i32, i32 }
%struct.b2JointArray = type { ptr, i32, i32 }
%struct.b2ContactArray = type { ptr, i32, i32 }
%struct.b2IslandArray = type { ptr, i32, i32 }
%struct.b2IdPool = type { %struct.b2IntArray, i32 }
%struct.b2ShapeArray = type { ptr, i32, i32 }
%struct.b2ChainShapeArray = type { ptr, i32, i32 }
%struct.b2SensorArray = type { ptr, i32, i32 }
%struct.b2TaskContextArray = type { ptr, i32, i32 }
%struct.b2SensorTaskContextArray = type { ptr, i32, i32 }
%struct.b2BodyMoveEventArray = type { ptr, i32, i32 }
%struct.b2SensorBeginTouchEventArray = type { ptr, i32, i32 }
%struct.b2ContactBeginTouchEventArray = type { ptr, i32, i32 }
%struct.b2SensorEndTouchEventArray = type { ptr, i32, i32 }
%struct.b2ContactEndTouchEventArray = type { ptr, i32, i32 }
%struct.b2ContactHitEventArray = type { ptr, i32, i32 }
%struct.b2BitSet = type { ptr, i32, i32 }
%struct.b2Profile = type { float, float, float, float, float, float, float, float, float, float, float, float, float, float, float, float, float, float, float, float, float, float }
%struct.b2Body = type { [32 x i8], ptr, i32, i32, i32, i32, i32, i32, i32, i32, i32, i32, i32, i32, float, float, float, float, i32, i32, i32, i16, i8, i8, i8, i8 }
%struct.b2Shape = type { i32, i32, i32, i32, i32, i32, float, float, float, float, float, i32, %struct.b2AABB, %struct.b2AABB, %struct.b2Vec2, i32, %struct.b2Filter, ptr, i32, %union.anon.0, i16, i8, i8, i8, i8 }
%struct.b2AABB = type { %struct.b2Vec2, %struct.b2Vec2 }
%struct.b2Filter = type { i64, i64, i32 }
%union.anon.0 = type { %struct.b2Polygon }
%struct.b2Polygon = type { [8 x %struct.b2Vec2], [8 x %struct.b2Vec2], %struct.b2Vec2, float, i32 }

; Function Attrs: inlinehint nounwind uwtable
define internal ptr @b2BodyArray_Get(ptr noundef %0, i32 noundef %1) #3 {
  %3 = alloca ptr, align 8
  %4 = alloca i32, align 4
  store ptr %0, ptr %3, align 8, !tbaa !12
  store i32 %1, ptr %4, align 4, !tbaa !3
  %5 = load ptr, ptr %3, align 8, !tbaa !12
  %6 = getelementptr inbounds nuw %struct.b2BodyArray, ptr %5, i32 0, i32 0
  %7 = load ptr, ptr %6, align 8, !tbaa !7
  %8 = load i32, ptr %4, align 4, !tbaa !3
  %9 = sext i32 %8 to i64
  %10 = getelementptr inbounds %struct.b2Body, ptr %7, i64 %9
  ret ptr %10
}

; Function Attrs: inlinehint nounwind uwtable
define internal ptr @b2ShapeArray_Get(ptr noundef %0, i32 noundef %1) #3 {
  %3 = alloca ptr, align 8
  %4 = alloca i32, align 4
  store ptr %0, ptr %3, align 8, !tbaa !12
  store i32 %1, ptr %4, align 4, !tbaa !3
  %5 = load ptr, ptr %3, align 8, !tbaa !12
  %6 = getelementptr inbounds nuw %struct.b2ShapeArray, ptr %5, i32 0, i32 0
  %7 = load ptr, ptr %6, align 8, !tbaa !210
  %8 = load i32, ptr %4, align 4, !tbaa !3
  %9 = sext i32 %8 to i64
  %10 = getelementptr inbounds %struct.b2Shape, ptr %7, i64 %9
  ret ptr %10
}

; Function Attrs: nounwind uwtable
define hidden ptr @b2GetBodyFullId(ptr noundef %0, i64 %1) #0 {
  %3 = alloca %struct.b2BodyId, align 4
  %4 = alloca ptr, align 8
  store i64 %1, ptr %3, align 4
  store ptr %0, ptr %4, align 8, !tbaa !24
  %5 = load ptr, ptr %4, align 8, !tbaa !24
  %6 = getelementptr inbounds nuw %struct.b2World, ptr %5, i32 0, i32 4
  %7 = getelementptr inbounds nuw %struct.b2BodyId, ptr %3, i32 0, i32 0
  %8 = load i32, ptr %7, align 4, !tbaa !26
  %9 = sub nsw i32 %8, 1
  %10 = call ptr @b2BodyArray_Get(ptr noundef %6, i32 noundef %9)
  ret ptr %10
}

; Function Attrs: nounwind uwtable
define void @b2Body_EnableContactEvents(i64 %0, i1 noundef zeroext %1) #0 {
  %3 = alloca %struct.b2BodyId, align 4
  %4 = alloca i8, align 1
  %5 = alloca ptr, align 8
  %6 = alloca ptr, align 8
  %7 = alloca i32, align 4
  %8 = alloca ptr, align 8
  store i64 %0, ptr %3, align 4
  %9 = zext i1 %1 to i8
  store i8 %9, ptr %4, align 1, !tbaa !102
  call void @llvm.lifetime.start.p0(i64 8, ptr %5) #8
  %10 = getelementptr inbounds nuw %struct.b2BodyId, ptr %3, i32 0, i32 1
  %11 = load i16, ptr %10, align 4, !tbaa !87
  %12 = zext i16 %11 to i32
  %13 = call ptr @b2GetWorld(i32 noundef %12)
  store ptr %13, ptr %5, align 8, !tbaa !24
  call void @llvm.lifetime.start.p0(i64 8, ptr %6) #8
  %14 = load ptr, ptr %5, align 8, !tbaa !24
  %15 = load i64, ptr %3, align 4
  %16 = call ptr @b2GetBodyFullId(ptr noundef %14, i64 %15)
  store ptr %16, ptr %6, align 8, !tbaa !29
  call void @llvm.lifetime.start.p0(i64 4, ptr %7) #8
  %17 = load ptr, ptr %6, align 8, !tbaa !29
  %18 = getelementptr inbounds nuw %struct.b2Body, ptr %17, i32 0, i32 6
  %19 = load i32, ptr %18, align 8, !tbaa !150
  store i32 %19, ptr %7, align 4, !tbaa !3
  br label %20

20:                                               ; preds = %23, %2
  %21 = load i32, ptr %7, align 4, !tbaa !3
  %22 = icmp ne i32 %21, -1
  br i1 %22, label %23, label %36

23:                                               ; preds = %20
  call void @llvm.lifetime.start.p0(i64 8, ptr %8) #8
  %24 = load ptr, ptr %5, align 8, !tbaa !24
  %25 = getelementptr inbounds nuw %struct.b2World, ptr %24, i32 0, i32 15
  %26 = load i32, ptr %7, align 4, !tbaa !3
  %27 = call ptr @b2ShapeArray_Get(ptr noundef %25, i32 noundef %26)
  store ptr %27, ptr %8, align 8, !tbaa !190
  %28 = load i8, ptr %4, align 1, !tbaa !102, !range !93, !noundef !94
  %29 = trunc i8 %28 to i1
  %30 = load ptr, ptr %8, align 8, !tbaa !190
  %31 = getelementptr inbounds nuw %struct.b2Shape, ptr %30, i32 0, i32 21
  %32 = zext i1 %29 to i8
  store i8 %32, ptr %31, align 2, !tbaa !272
  %33 = load ptr, ptr %8, align 8, !tbaa !190
  %34 = getelementptr inbounds nuw %struct.b2Shape, ptr %33, i32 0, i32 3
  %35 = load i32, ptr %34, align 4, !tbaa !196
  store i32 %35, ptr %7, align 4, !tbaa !3
  call void @llvm.lifetime.end.p0(i64 8, ptr %8) #8
  br label %20, !llvm.loop !273

36:                                               ; preds = %20
  call void @llvm.lifetime.end.p0(i64 4, ptr %7) #8
  call void @llvm.lifetime.end.p0(i64 8, ptr %6) #8
  call void @llvm.lifetime.end.p0(i64 8, ptr %5) #8
  ret void
}