; Function Attrs: nounwind uwtable
define void @b2Body_EnableContactEvents(i64 %0, i1 noundef zeroext %1) local_unnamed_addr #0 {
  %.sroa.2.0.extract.shift = lshr i64 %0, 32
  %3 = zext i1 %1 to i8
  %4 = trunc nuw i64 %.sroa.2.0.extract.shift to i32
  %5 = and i32 %4, 65535
  %6 = tail call ptr @b2GetWorld(i32 noundef %5) #10
  %7 = getelementptr inbounds nuw i8, ptr %6, i64 1032
  %.val.i = load ptr, ptr %7, align 8, !tbaa !10
  %8 = shl i64 %0, 32
  %sext.i = add i64 %8, -4294967296
  %9 = ashr exact i64 %sext.i, 25
  %10 = getelementptr inbounds i8, ptr %.val.i, i64 %9
  %11 = getelementptr inbounds nuw i8, ptr %10, i64 56
  %.07 = load i32, ptr %11, align 4, !tbaa !164
  %.not8 = icmp eq i32 %.07, -1
  br i1 %.not8, label %._crit_edge, label %.lr.ph

.lr.ph:                                           ; preds = %2
  %12 = getelementptr inbounds nuw i8, ptr %6, i64 1256
  %.val = load ptr, ptr %12, align 8, !tbaa !165
  br label %13

13:                                               ; preds = %.lr.ph, %13
  %.09 = phi i32 [ %.07, %.lr.ph ], [ %.0, %13 ]
  %14 = sext i32 %.09 to i64
  %15 = getelementptr inbounds %struct.b2Shape, ptr %.val, i64 %14
  %16 = getelementptr inbounds nuw i8, ptr %15, i64 278
  store i8 %3, ptr %16, align 2, !tbaa !218
  %17 = getelementptr inbounds nuw i8, ptr %15, i64 12
  %.0 = load i32, ptr %17, align 4, !tbaa !164
  %.not = icmp eq i32 %.0, -1
  br i1 %.not, label %._crit_edge, label %13, !llvm.loop !219

._crit_edge:                                      ; preds = %13, %2
  ret void
}